; ModuleID = '38/217.c'
source_filename = "38/217.c"
target datalayout = "e-m:e-p270:32:32-p271:32:32-p272:64:64-i64:64-f80:128-n8:16:32:64-S128"
target triple = "x86_64-pc-linux-gnu"

@.str = private unnamed_addr constant [3 x i8] c"%d\00", align 1
@.str.1 = private unnamed_addr constant [4 x i8] c"%lf\00", align 1
@.str.2 = private unnamed_addr constant [7 x i8] c"%.5lf\0A\00", align 1

; Function Attrs: noinline nounwind uwtable
define dso_local double @S() #0 {
  %1 = alloca i32, align 4
  %2 = alloca i32, align 4
  %3 = alloca [100 x double], align 16
  %4 = alloca double*, align 8
  %5 = alloca double, align 8
  %6 = alloca double, align 8
  store double 0.000000e+00, double* %5, align 8
  store double 0.000000e+00, double* %6, align 8
  %7 = call i32 (i8*, ...) @__isoc99_scanf(i8* getelementptr inbounds ([3 x i8], [3 x i8]* @.str, i64 0, i64 0), i32* %2)
  store i32 0, i32* %1, align 4
  br label %8

8:                                                ; preds = %23, %0
  %9 = load i32, i32* %1, align 4
  %10 = load i32, i32* %2, align 4
  %11 = icmp slt i32 %9, %10
  br i1 %11, label %12, label %26

12:                                               ; preds = %8
  %13 = load i32, i32* %1, align 4
  %14 = sext i32 %13 to i64
  %15 = getelementptr inbounds [100 x double], [100 x double]* %3, i64 0, i64 %14
  %16 = call i32 (i8*, ...) @__isoc99_scanf(i8* getelementptr inbounds ([4 x i8], [4 x i8]* @.str.1, i64 0, i64 0), double* %15)
  %17 = load i32, i32* %1, align 4
  %18 = sext i32 %17 to i64
  %19 = getelementptr inbounds [100 x double], [100 x double]* %3, i64 0, i64 %18
  %20 = load double, double* %19, align 8
  %21 = load double, double* %5, align 8
  %22 = fadd double %21, %20
  store double %22, double* %5, align 8
  br label %23

23:                                               ; preds = %12
  %24 = load i32, i32* %1, align 4
  %25 = add nsw i32 %24, 1
  store i32 %25, i32* %1, align 4
  br label %8

26:                                               ; preds = %8
  %27 = load double, double* %5, align 8
  %28 = load i32, i32* %2, align 4
  %29 = sitofp i32 %28 to double
  %30 = fdiv double %27, %29
  store double %30, double* %5, align 8
  %31 = getelementptr inbounds [100 x double], [100 x double]* %3, i64 0, i64 0
  store double* %31, double** %4, align 8
  store i32 0, i32* %1, align 4
  br label %32

32:                                               ; preds = %54, %26
  %33 = load i32, i32* %1, align 4
  %34 = load i32, i32* %2, align 4
  %35 = icmp slt i32 %33, %34
  br i1 %35, label %36, label %57

36:                                               ; preds = %32
  %37 = load double*, double** %4, align 8
  %38 = load i32, i32* %1, align 4
  %39 = sext i32 %38 to i64
  %40 = getelementptr inbounds double, double* %37, i64 %39
  %41 = load double, double* %40, align 8
  %42 = load double, double* %5, align 8
  %43 = fsub double %41, %42
  %44 = load double*, double** %4, align 8
  %45 = load i32, i32* %1, align 4
  %46 = sext i32 %45 to i64
  %47 = getelementptr inbounds double, double* %44, i64 %46
  %48 = load double, double* %47, align 8
  %49 = load double, double* %5, align 8
  %50 = fsub double %48, %49
  %51 = fmul double %43, %50
  %52 = load double, double* %6, align 8
  %53 = fadd double %52, %51
  store double %53, double* %6, align 8
  br label %54

54:                                               ; preds = %36
  %55 = load i32, i32* %1, align 4
  %56 = add nsw i32 %55, 1
  store i32 %56, i32* %1, align 4
  br label %32

57:                                               ; preds = %32
  %58 = load double, double* %6, align 8
  %59 = load i32, i32* %2, align 4
  %60 = sitofp i32 %59 to double
  %61 = fdiv double %58, %60
  %62 = call double @sqrt(double %61) #3
  ret double %62
}

declare dso_local i32 @__isoc99_scanf(i8*, ...) #1

; Function Attrs: nounwind
declare dso_local double @sqrt(double) #2

; Function Attrs: noinline nounwind uwtable
define dso_local i32 @main() #0 {
  %1 = alloca i32, align 4
  %2 = alloca i32, align 4
  %3 = alloca i32, align 4
  store i32 0, i32* %1, align 4
  %4 = call i32 (i8*, ...) @__isoc99_scanf(i8* getelementptr inbounds ([3 x i8], [3 x i8]* @.str, i64 0, i64 0), i32* %3)
  store i32 0, i32* %2, align 4
  br label %5

5:                                                ; preds = %12, %0
  %6 = load i32, i32* %2, align 4
  %7 = load i32, i32* %3, align 4
  %8 = icmp slt i32 %6, %7
  br i1 %8, label %9, label %15

9:                                                ; preds = %5
  %10 = call double @S()
  %11 = call i32 (i8*, ...) @printf(i8* getelementptr inbounds ([7 x i8], [7 x i8]* @.str.2, i64 0, i64 0), double %10)
  br label %12

12:                                               ; preds = %9
  %13 = load i32, i32* %2, align 4
  %14 = add nsw i32 %13, 1
  store i32 %14, i32* %2, align 4
  br label %5

15:                                               ; preds = %5
  ret i32 0
}

declare dso_local i32 @printf(i8*, ...) #1


!llvm.module.flags = !{!0}
!llvm.ident = !{!1}

!0 = !{i32 1, !"wchar_size", i32 4}
!1 = !{!"clang version 10.0.0-4ubuntu1 "}
